target datalayout = "e-m:e-p270:32:32-p271:32:32-p272:64:64-i64:64-i128:128-f80:128-n8:16:32:64-S128"
target triple = "x86_64-pc-linux-gnu"

%struct.anon = type { i32, [0 x i8] }
%struct.QueryOperand = type { i8, i8, i8, i32, i32 }

; Function Attrs: nounwind uwtable
define internal i32 @checkcondition_bit(ptr noundef %0, ptr noundef %1, ptr noundef %2) #0 {
  %4 = alloca i32, align 4
  %5 = alloca ptr, align 8
  %6 = alloca ptr, align 8
  %7 = alloca ptr, align 8
  %8 = alloca ptr, align 8
  %9 = alloca i32, align 4
  store ptr %0, ptr %5, align 8
  store ptr %1, ptr %6, align 8
  store ptr %2, ptr %7, align 8
  call void @llvm.lifetime.start.p0(i64 8, ptr %8) #9
  %10 = load ptr, ptr %5, align 8
  store ptr %10, ptr %8, align 8
  %11 = load ptr, ptr %6, align 8
  %12 = getelementptr inbounds nuw %struct.QueryOperand, ptr %11, i32 0, i32 2
  %13 = load i8, ptr %12, align 2, !range !4, !noundef !5
  %14 = trunc i8 %13 to i1
  br i1 %14, label %15, label %16

15:                                               ; preds = %3
  store i32 2, ptr %4, align 4
  store i32 1, ptr %9, align 4
  br label %58

16:                                               ; preds = %3
  %17 = load ptr, ptr %8, align 8
  %18 = getelementptr inbounds nuw i8, ptr %17, i64 8
  %19 = load ptr, ptr %6, align 8
  %20 = getelementptr inbounds nuw %struct.QueryOperand, ptr %19, i32 0, i32 3
  %21 = load i32, ptr %20, align 4
  %22 = zext i32 %21 to i64
  %23 = load ptr, ptr %8, align 8
  %24 = getelementptr inbounds nuw %struct.anon, ptr %23, i32 0, i32 0
  %25 = load i32, ptr %24, align 4
  %26 = lshr i32 %25, 2
  %27 = and i32 %26, 1073741823
  %28 = zext i32 %27 to i64
  %29 = sub i64 %28, 8
  %30 = mul i64 %29, 8
  %31 = urem i64 %22, %30
  %32 = udiv i64 %31, 8
  %33 = trunc i64 %32 to i32
  %34 = sext i32 %33 to i64
  %35 = getelementptr inbounds i8, ptr %18, i64 %34
  %36 = load i8, ptr %35, align 1
  %37 = sext i8 %36 to i32
  %38 = load ptr, ptr %6, align 8
  %39 = getelementptr inbounds nuw %struct.QueryOperand, ptr %38, i32 0, i32 3
  %40 = load i32, ptr %39, align 4
  %41 = zext i32 %40 to i64
  %42 = load ptr, ptr %8, align 8
  %43 = getelementptr inbounds nuw %struct.anon, ptr %42, i32 0, i32 0
  %44 = load i32, ptr %43, align 4
  %45 = lshr i32 %44, 2
  %46 = and i32 %45, 1073741823
  %47 = zext i32 %46 to i64
  %48 = sub i64 %47, 8
  %49 = mul i64 %48, 8
  %50 = urem i64 %41, %49
  %51 = urem i64 %50, 8
  %52 = trunc i64 %51 to i32
  %53 = ashr i32 %37, %52
  %54 = and i32 %53, 1
  %55 = icmp ne i32 %54, 0
  br i1 %55, label %56, label %57

56:                                               ; preds = %16
  store i32 2, ptr %4, align 4
  store i32 1, ptr %9, align 4
  br label %58

57:                                               ; preds = %16
  store i32 0, ptr %4, align 4
  store i32 1, ptr %9, align 4
  br label %58

58:                                               ; preds = %57, %56, %15
  call void @llvm.lifetime.end.p0(i64 8, ptr %8) #9
  %59 = load i32, ptr %4, align 4
  ret i32 %59
}