; Function Attrs: mustprogress nofree norecurse nosync nounwind willreturn memory(argmem: read) uwtable
define internal range(i32 0, 3) i32 @checkcondition_bit(ptr noundef readonly captures(none) %0, ptr noundef readonly captures(none) %1, ptr readnone captures(none) %2) #5 {
  %4 = getelementptr inbounds nuw i8, ptr %1, i64 2
  %5 = load i8, ptr %4, align 2, !range !6, !noundef !7
  %6 = trunc nuw i8 %5 to i1
  br i1 %6, label %26, label %7

7:                                                ; preds = %3
  %8 = getelementptr inbounds nuw i8, ptr %0, i64 8
  %9 = getelementptr inbounds nuw i8, ptr %1, i64 4
  %10 = load i32, ptr %9, align 4
  %11 = zext i32 %10 to i64
  %12 = load i32, ptr %0, align 4
  %13 = lshr i32 %12, 2
  %14 = zext nneg i32 %13 to i64
  %15 = shl nuw nsw i64 %14, 3
  %16 = add nsw i64 %15, -64
  %17 = urem i64 %11, %16
  %18 = lshr i64 %17, 3
  %19 = getelementptr inbounds nuw i8, ptr %8, i64 %18
  %20 = load i8, ptr %19, align 1
  %21 = zext i8 %20 to i32
  %22 = trunc nuw i64 %17 to i32
  %23 = and i32 %22, 7
  %24 = shl nuw nsw i32 1, %23
  %25 = and i32 %24, %21
  %.not = icmp eq i32 %25, 0
  %. = select i1 %.not, i32 0, i32 2
  br label %26

26:                                               ; preds = %7, %3
  %.0 = phi i32 [ 2, %3 ], [ %., %7 ]
  ret i32 %.0
}